target datalayout = "e-m:e-p270:32:32-p271:32:32-p272:64:64-i64:64-i128:128-f80:128-n8:16:32:64-S128"
target triple = "x86_64-pc-linux-gnu"

%"struct.duckdb::MetaBlockPointer" = type { i64, i32, i32 }
%"struct.duckdb::BlockPointer" = type { i64, i32, i32 }

; Function Attrs: mustprogress nounwind uwtable
define linkonce_odr noundef i32 @_ZN6duckdb17UnsafeNumericCastIjmvEET_T0_(i64 noundef %0) #0 comdat {
  %2 = alloca i64, align 8
  store i64 %0, ptr %2, align 8, !tbaa !16
  %3 = load i64, ptr %2, align 8, !tbaa !16
  %4 = trunc i64 %3 to i32
  ret i32 %4
}

; Function Attrs: mustprogress nounwind uwtable
define linkonce_odr void @_ZN6duckdb16MetaBlockPointerC2Ev(ptr noundef nonnull align 8 dereferenceable(16) %0) unnamed_addr #0 comdat align 2 {
  %2 = alloca ptr, align 8
  store ptr %0, ptr %2, align 8, !tbaa !125
  %3 = load ptr, ptr %2, align 8
  %4 = getelementptr inbounds nuw %"struct.duckdb::MetaBlockPointer", ptr %3, i32 0, i32 0
  store i64 -1, ptr %4, align 8, !tbaa !127
  %5 = getelementptr inbounds nuw %"struct.duckdb::MetaBlockPointer", ptr %3, i32 0, i32 1
  store i32 0, ptr %5, align 8, !tbaa !129
  %6 = getelementptr inbounds nuw %"struct.duckdb::MetaBlockPointer", ptr %3, i32 0, i32 2
  store i32 0, ptr %6, align 4, !tbaa !130
  ret void
}

; Function Attrs: mustprogress nounwind uwtable
define linkonce_odr noundef zeroext i1 @_ZNK6duckdb12BlockPointer7IsValidEv(ptr noundef nonnull align 8 dereferenceable(16) %0) #0 comdat align 2 {
  %2 = alloca ptr, align 8
  store ptr %0, ptr %2, align 8, !tbaa !135
  %3 = load ptr, ptr %2, align 8
  %4 = getelementptr inbounds nuw %"struct.duckdb::BlockPointer", ptr %3, i32 0, i32 0
  %5 = load i64, ptr %4, align 8, !tbaa !132
  %6 = icmp ne i64 %5, -1
  ret i1 %6
}

; Function Attrs: mustprogress uwtable
define { i64, i64 } @_ZN6duckdb15MetadataManager16FromBlockPointerENS_12BlockPointerEm(i64 %0, i64 %1, i64 noundef %2) #2 align 2 {
  %4 = alloca %"struct.duckdb::MetaBlockPointer", align 8
  %5 = alloca %"struct.duckdb::BlockPointer", align 8
  %6 = alloca i64, align 8
  %7 = alloca i64, align 8
  %8 = alloca i64, align 8
  %9 = getelementptr inbounds nuw { i64, i64 }, ptr %5, i32 0, i32 0
  store i64 %0, ptr %9, align 8
  %10 = getelementptr inbounds nuw { i64, i64 }, ptr %5, i32 0, i32 1
  store i64 %1, ptr %10, align 8
  store i64 %2, ptr %6, align 8, !tbaa !16
  %11 = call noundef zeroext i1 @_ZNK6duckdb12BlockPointer7IsValidEv(ptr noundef nonnull align 8 dereferenceable(16) %5)
  br i1 %11, label %13, label %12

12:                                               ; preds = %3
  call void @_ZN6duckdb16MetaBlockPointerC2Ev(ptr noundef nonnull align 8 dereferenceable(16) %4)
  br label %33

13:                                               ; preds = %3
  call void @llvm.lifetime.start.p0(i64 8, ptr %7) #19
  %14 = getelementptr inbounds nuw %"struct.duckdb::BlockPointer", ptr %5, i32 0, i32 1
  %15 = load i32, ptr %14, align 8, !tbaa !134
  %16 = zext i32 %15 to i64
  %17 = load i64, ptr %6, align 8, !tbaa !16
  %18 = udiv i64 %16, %17
  store i64 %18, ptr %7, align 8, !tbaa !16
  call void @llvm.lifetime.start.p0(i64 8, ptr %8) #19
  %19 = getelementptr inbounds nuw %"struct.duckdb::BlockPointer", ptr %5, i32 0, i32 1
  %20 = load i32, ptr %19, align 8, !tbaa !134
  %21 = zext i32 %20 to i64
  %22 = load i64, ptr %6, align 8, !tbaa !16
  %23 = urem i64 %21, %22
  store i64 %23, ptr %8, align 8, !tbaa !16
  call void @_ZN6duckdb16MetaBlockPointerC2Ev(ptr noundef nonnull align 8 dereferenceable(16) %4)
  %24 = getelementptr inbounds nuw %"struct.duckdb::BlockPointer", ptr %5, i32 0, i32 0
  %25 = load i64, ptr %24, align 8, !tbaa !132
  %26 = load i64, ptr %7, align 8, !tbaa !16
  %27 = shl i64 %26, 56
  %28 = or i64 %25, %27
  %29 = getelementptr inbounds nuw %"struct.duckdb::MetaBlockPointer", ptr %4, i32 0, i32 0
  store i64 %28, ptr %29, align 8, !tbaa !127
  %30 = load i64, ptr %8, align 8, !tbaa !16
  %31 = call noundef i32 @_ZN6duckdb17UnsafeNumericCastIjmvEET_T0_(i64 noundef %30)
  %32 = getelementptr inbounds nuw %"struct.duckdb::MetaBlockPointer", ptr %4, i32 0, i32 1
  store i32 %31, ptr %32, align 8, !tbaa !129
  call void @llvm.lifetime.end.p0(i64 8, ptr %8) #19
  call void @llvm.lifetime.end.p0(i64 8, ptr %7) #19
  br label %33

33:                                               ; preds = %13, %12
  %34 = load { i64, i64 }, ptr %4, align 8
  ret { i64, i64 } %34
}