; Function Attrs: mustprogress nofree norecurse nosync nounwind willreturn memory(none) uwtable
define { i64, i64 } @_ZN6duckdb15MetadataManager16FromBlockPointerENS_12BlockPointerEm(i64 %0, i64 %1, i64 noundef %2) local_unnamed_addr #11 align 2 {
  %.not = icmp eq i64 %0, -1
  br i1 %.not, label %10, label %4

4:                                                ; preds = %3
  %5 = and i64 %1, 4294967295
  %6 = udiv i64 %5, %2
  %7 = urem i64 %5, %2
  %8 = shl i64 %6, 56
  %9 = or i64 %8, %0
  br label %10

10:                                               ; preds = %3, %4
  %.sroa.05.0 = phi i64 [ %9, %4 ], [ -1, %3 ]
  %.sroa.4.0 = phi i64 [ %7, %4 ], [ 0, %3 ]
  %.fca.0.insert = insertvalue { i64, i64 } poison, i64 %.sroa.05.0, 0
  %.fca.1.insert = insertvalue { i64, i64 } %.fca.0.insert, i64 %.sroa.4.0, 1
  ret { i64, i64 } %.fca.1.insert
}